(lp0
(dp1
S'# Instances'
p2
S'4177'
p3
sS'Name'
p4
S'Abalone'
p5
sS'Data Types'
p6
S'Multivariate'
p7
sS'# Attributes'
p8
S'8'
p9
sS'Attribute Types'
p10
S'Categorical, Integer, Real'
p11
sS'Default Task'
p12
S'Classification'
p13
sS'Year'
p14
S'1995'
p15
sa(dp16
g2
S'48842'
p17
sg4
S'Adult'
p18
sg6
S'Multivariate'
p19
sg8
S'14'
p20
sg10
S'Categorical, Integer'
p21
sg12
S'Classification'
p22
sg14
S'1996'
p23
sa(dp24
g2
S'798'
p25
sg4
S'Annealing'
p26
sg6
S'Multivariate'
p27
sg8
S'38'
p28
sg10
S'Categorical, Integer, Real'
p29
sg12
S'Classification'
p30
sg14
S''
p31
sa(dp32
g2
S'37711'
p33
sg4
S'Anonymous Microsoft Web Data'
p34
sg6
S''
p35
sg8
S'294'
p36
sg10
S'Categorical'
p37
sg12
S'Recommender-Systems'
p38
sg14
S'1998'
p39
sa(dp40
g2
S'452'
p41
sg4
S'Arrhythmia'
p42
sg6
S'Multivariate'
p43
sg8
S'279'
p44
sg10
S'Categorical, Integer, Real'
p45
sg12
S'Classification'
p46
sg14
S'1998'
p47
sa(dp48
g2
S'6000'
p49
sg4
S'Artificial Characters'
p50
sg6
S'Multivariate'
p51
sg8
S'7'
p52
sg10
S'Categorical, Integer, Real'
p53
sg12
S'Classification'
p54
sg14
S'1992'
p55
sa(dp56
g2
S'226'
p57
sg4
S'Audiology (Original)'
p58
sg6
S'Multivariate'
p59
sg8
S''
p60
sg10
S'Categorical'
p61
sg12
S'Classification'
p62
sg14
S'1987'
p63
sa(dp64
g2
S'226'
p65
sg4
S'Audiology (Standardized)'
p66
sg6
S'Multivariate'
p67
sg8
S'69'
p68
sg10
S'Categorical'
p69
sg12
S'Classification'
p70
sg14
S'1992'
p71
sa(dp72
g2
S'398'
p73
sg4
S'Auto MPG'
p74
sg6
S'Multivariate'
p75
sg8
S'8'
p76
sg10
S'Categorical, Real'
p77
sg12
S'Regression'
p78
sg14
S'1993'
p79
sa(dp80
g2
S'205'
p81
sg4
S'Automobile'
p82
sg6
S'Multivariate'
p83
sg8
S'26'
p84
sg10
S'Categorical, Integer, Real'
p85
sg12
S'Regression'
p86
sg14
S'1987'
p87
sa(dp88
g2
S'294'
p89
sg4
S'Badges'
p90
sg6
S'Univariate, Text'
p91
sg8
S'1'
p92
sg10
S''
p93
sg12
S'Classification'
p94
sg14
S'1994'
p95
sa(dp96
g2
S'625'
p97
sg4
S'Balance Scale'
p98
sg6
S'Multivariate'
p99
sg8
S'4'
p100
sg10
S'Categorical'
p101
sg12
S'Classification'
p102
sg14
S'1994'
p103
sa(dp104
g2
S'16'
p105
sg4
S'Balloons'
p106
sg6
S'Multivariate'
p107
sg8
S'4'
p108
sg10
S'Categorical'
p109
sg12
S'Classification'
p110
sg14
S''
p111
sa(dp112
g2
S'286'
p113
sg4
S'Breast Cancer'
p114
sg6
S'Multivariate'
p115
sg8
S'9'
p116
sg10
S'Categorical'
p117
sg12
S'Classification'
p118
sg14
S'1988'
p119
sa(dp120
g2
S'699'
p121
sg4
S'Breast Cancer Wisconsin (Original)'
p122
sg6
S'Multivariate'
p123
sg8
S'10'
p124
sg10
S'Integer'
p125
sg12
S'Classification'
p126
sg14
S'1992'
p127
sa(dp128
g2
S'198'
p129
sg4
S'Breast Cancer Wisconsin (Prognostic)'
p130
sg6
S'Multivariate'
p131
sg8
S'34'
p132
sg10
S'Real'
p133
sg12
S'Classification, Regression'
p134
sg14
S'1995'
p135
sa(dp136
g2
S'569'
p137
sg4
S'Breast Cancer Wisconsin (Diagnostic)'
p138
sg6
S'Multivariate'
p139
sg8
S'32'
p140
sg10
S'Real'
p141
sg12
S'Classification'
p142
sg14
S'1995'
p143
sa(dp144
g2
S'108'
p145
sg4
S'Pittsburgh Bridges'
p146
sg6
S'Multivariate'
p147
sg8
S'13'
p148
sg10
S'Categorical, Integer'
p149
sg12
S'Classification'
p150
sg14
S'1990'
p151
sa(dp152
g2
S'1728'
p153
sg4
S'Car Evaluation'
p154
sg6
S'Multivariate'
p155
sg8
S'6'
p156
sg10
S'Categorical'
p157
sg12
S'Classification'
p158
sg14
S'1997'
p159
sa(dp160
g2
S'48842'
p161
sg4
S'Census Income'
p162
sg6
S'Multivariate'
p163
sg8
S'14'
p164
sg10
S'Categorical, Integer'
p165
sg12
S'Classification'
p166
sg14
S'1996'
p167
sa(dp168
g2
S''
p169
sg4
S'Chess (King-Rook vs. King-Knight)'
p170
sg6
S'Multivariate, Data-Generator'
p171
sg8
S'22'
p172
sg10
S'Categorical, Integer'
p173
sg12
S'Classification'
p174
sg14
S'1988'
p175
sa(dp176
g2
S'3196'
p177
sg4
S'Chess (King-Rook vs. King-Pawn)'
p178
sg6
S'Multivariate'
p179
sg8
S'36'
p180
sg10
S'Categorical'
p181
sg12
S'Classification'
p182
sg14
S'1989'
p183
sa(dp184
g2
S'28056'
p185
sg4
S'Chess (King-Rook vs. King)'
p186
sg6
S'Multivariate'
p187
sg8
S'6'
p188
sg10
S'Categorical, Integer'
p189
sg12
S'Classification'
p190
sg14
S'1994'
p191
sa(dp192
g2
S''
p193
sg4
S'Chess (Domain Theories)'
p194
sg6
S'Domain-Theory'
p195
sg8
S''
p196
sg10
S''
p197
sg12
S''
p198
sg14
S''
p199
sa(dp200
g2
S'100'
p201
sg4
S'Bach Chorales'
p202
sg6
S'Univariate, Time-Series'
p203
sg8
S'6'
p204
sg10
S'Categorical, Integer'
p205
sg12
S''
p206
sg14
S''
p207
sa(dp208
g2
S'67557'
p209
sg4
S'Connect-4'
p210
sg6
S'Multivariate, Spatial'
p211
sg8
S'42'
p212
sg10
S'Categorical'
p213
sg12
S'Classification'
p214
sg14
S'1995'
p215
sa(dp216
g2
S'690'
p217
sg4
S'Credit Approval'
p218
sg6
S'Multivariate'
p219
sg8
S'15'
p220
sg10
S'Categorical, Integer, Real'
p221
sg12
S'Classification'
p222
sg14
S''
p223
sa(dp224
g2
S'125'
p225
sg4
S'Japanese Credit Screening'
p226
sg6
S'Multivariate, Domain-Theory'
p227
sg8
S''
p228
sg10
S'Categorical, Real, Integer'
p229
sg12
S'Classification'
p230
sg14
S'1992'
p231
sa(dp232
g2
S'209'
p233
sg4
S'Computer Hardware'
p234
sg6
S'Multivariate'
p235
sg8
S'9'
p236
sg10
S'Integer'
p237
sg12
S'Regression'
p238
sg14
S'1987'
p239
sa(dp240
g2
S'1473'
p241
sg4
S'Contraceptive Method Choice'
p242
sg6
S'Multivariate'
p243
sg8
S'9'
p244
sg10
S'Categorical, Integer'
p245
sg12
S'Classification'
p246
sg14
S'1997'
p247
sa(dp248
g2
S'581012'
p249
sg4
S'Covertype'
p250
sg6
S'Multivariate'
p251
sg8
S'54'
p252
sg10
S'Categorical, Integer'
p253
sg12
S'Classification'
p254
sg14
S'1998'
p255
sa(dp256
g2
S'512'
p257
sg4
S'Cylinder Bands'
p258
sg6
S'Multivariate'
p259
sg8
S'39'
p260
sg10
S'Categorical, Integer, Real'
p261
sg12
S'Classification'
p262
sg14
S'1995'
p263
sa(dp264
g2
S'366'
p265
sg4
S'Dermatology'
p266
sg6
S'Multivariate'
p267
sg8
S'33'
p268
sg10
S'Categorical, Integer'
p269
sg12
S'Classification'
p270
sg14
S'1998'
p271
sa(dp272
g2
S''
p273
sg4
S'Diabetes'
p274
sg6
S'Multivariate, Time-Series'
p275
sg8
S'20'
p276
sg10
S'Categorical, Integer'
p277
sg12
S''
p278
sg14
S''
p279
sa(dp280
g2
S''
p281
sg4
S'DGP2 - The Second Data Generation Program'
p282
sg6
S'Data-Generator'
p283
sg8
S''
p284
sg10
S'Real'
p285
sg12
S''
p286
sg14
S''
p287
sa(dp288
g2
S''
p289
sg4
S'Document Understanding'
p290
sg6
S''
p291
sg8
S''
p292
sg10
S''
p293
sg12
S''
p294
sg14
S'1994'
p295
sa(dp296
g2
S''
p297
sg4
S'EBL Domain Theories'
p298
sg6
S''
p299
sg8
S''
p300
sg10
S''
p301
sg12
S''
p302
sg14
S''
p303
sa(dp304
g2
S'132'
p305
sg4
S'Echocardiogram'
p306
sg6
S'Multivariate'
p307
sg8
S'12'
p308
sg10
S'Categorical, Integer, Real'
p309
sg12
S'Classification'
p310
sg14
S'1989'
p311
sa(dp312
g2
S'336'
p313
sg4
S'Ecoli'
p314
sg6
S'Multivariate'
p315
sg8
S'8'
p316
sg10
S'Real'
p317
sg12
S'Classification'
p318
sg14
S'1996'
p319
sa(dp320
g2
S'194'
p321
sg4
S'Flags'
p322
sg6
S'Multivariate'
p323
sg8
S'30'
p324
sg10
S'Categorical, Integer'
p325
sg12
S'Classification'
p326
sg14
S'1990'
p327
sa(dp328
g2
S'352'
p329
sg4
S'Function Finding'
p330
sg6
S''
p331
sg8
S''
p332
sg10
S'Real'
p333
sg12
S'Function-Learning'
p334
sg14
S'1990'
p335
sa(dp336
g2
S'214'
p337
sg4
S'Glass Identification'
p338
sg6
S'Multivariate'
p339
sg8
S'10'
p340
sg10
S'Real'
p341
sg12
S'Classification'
p342
sg14
S'1987'
p343
sa(dp344
g2
S'306'
p345
sg4
S"Haberman's Survival"
p346
sg6
S'Multivariate'
p347
sg8
S'3'
p348
sg10
S'Integer'
p349
sg12
S'Classification'
p350
sg14
S'1999'
p351
sa(dp352
g2
S'160'
p353
sg4
S'Hayes-Roth'
p354
sg6
S'Multivariate'
p355
sg8
S'5'
p356
sg10
S'Categorical'
p357
sg12
S'Classification'
p358
sg14
S'1989'
p359
sa(dp360
g2
S'303'
p361
sg4
S'Heart Disease'
p362
sg6
S'Multivariate'
p363
sg8
S'75'
p364
sg10
S'Categorical, Integer, Real'
p365
sg12
S'Classification'
p366
sg14
S'1988'
p367
sa(dp368
g2
S'155'
p369
sg4
S'Hepatitis'
p370
sg6
S'Multivariate'
p371
sg8
S'19'
p372
sg10
S'Categorical, Integer, Real'
p373
sg12
S'Classification'
p374
sg14
S'1988'
p375
sa(dp376
g2
S'368'
p377
sg4
S'Horse Colic'
p378
sg6
S'Multivariate'
p379
sg8
S'27'
p380
sg10
S'Categorical, Integer, Real'
p381
sg12
S'Classification'
p382
sg14
S'1989'
p383
sa(dp384
g2
S'506'
p385
sg4
S'Housing'
p386
sg6
S'Multivariate'
p387
sg8
S'14'
p388
sg10
S'Categorical, Integer, Real'
p389
sg12
S'Regression'
p390
sg14
S'1993'
p391
sa(dp392
g2
S''
p393
sg4
S'ICU'
p394
sg6
S'Multivariate, Time-Series'
p395
sg8
S''
p396
sg10
S'Real'
p397
sg12
S''
p398
sg14
S''
p399
sa(dp400
g2
S'2310'
p401
sg4
S'Image Segmentation'
p402
sg6
S'Multivariate'
p403
sg8
S'19'
p404
sg10
S'Real'
p405
sg12
S'Classification'
p406
sg14
S'1990'
p407
sa(dp408
g2
S'3279'
p409
sg4
S'Internet Advertisements'
p410
sg6
S'Multivariate'
p411
sg8
S'1558'
p412
sg10
S'Categorical, Integer, Real'
p413
sg12
S'Classification'
p414
sg14
S'1998'
p415
sa(dp416
g2
S'351'
p417
sg4
S'Ionosphere'
p418
sg6
S'Multivariate'
p419
sg8
S'34'
p420
sg10
S'Integer, Real'
p421
sg12
S'Classification'
p422
sg14
S'1989'
p423
sa(dp424
g2
S'150'
p425
sg4
S'Iris'
p426
sg6
S'Multivariate'
p427
sg8
S'4'
p428
sg10
S'Real'
p429
sg12
S'Classification'
p430
sg14
S'1988'
p431
sa(dp432
g2
S'7797'
p433
sg4
S'ISOLET'
p434
sg6
S'Multivariate'
p435
sg8
S'617'
p436
sg10
S'Real'
p437
sg12
S'Classification'
p438
sg14
S'1994'
p439
sa(dp440
g2
S'104'
p441
sg4
S'Kinship'
p442
sg6
S'Relational'
p443
sg8
S'12'
p444
sg10
S'Categorical'
p445
sg12
S'Relational-Learning'
p446
sg14
S'1990'
p447
sa(dp448
g2
S'57'
p449
sg4
S'Labor Relations'
p450
sg6
S'Multivariate'
p451
sg8
S'16'
p452
sg10
S'Categorical, Integer, Real'
p453
sg12
S''
p454
sg14
S'1988'
p455
sa(dp456
g2
S''
p457
sg4
S'LED Display Domain'
p458
sg6
S'Multivariate, Data-Generator'
p459
sg8
S'7'
p460
sg10
S'Categorical'
p461
sg12
S'Classification'
p462
sg14
S'1988'
p463
sa(dp464
g2
S'24'
p465
sg4
S'Lenses'
p466
sg6
S'Multivariate'
p467
sg8
S'4'
p468
sg10
S'Categorical'
p469
sg12
S'Classification'
p470
sg14
S'1990'
p471
sa(dp472
g2
S'20000'
p473
sg4
S'Letter Recognition'
p474
sg6
S'Multivariate'
p475
sg8
S'16'
p476
sg10
S'Integer'
p477
sg12
S'Classification'
p478
sg14
S'1991'
p479
sa(dp480
g2
S'345'
p481
sg4
S'Liver Disorders'
p482
sg6
S'Multivariate'
p483
sg8
S'7'
p484
sg10
S'Categorical, Integer, Real'
p485
sg12
S''
p486
sg14
S'1990'
p487
sa(dp488
g2
S''
p489
sg4
S'Logic Theorist'
p490
sg6
S'Domain-Theory'
p491
sg8
S''
p492
sg10
S''
p493
sg12
S''
p494
sg14
S''
p495
sa(dp496
g2
S'32'
p497
sg4
S'Lung Cancer'
p498
sg6
S'Multivariate'
p499
sg8
S'56'
p500
sg10
S'Integer'
p501
sg12
S'Classification'
p502
sg14
S'1992'
p503
sa(dp504
g2
S'148'
p505
sg4
S'Lymphography'
p506
sg6
S'Multivariate'
p507
sg8
S'18'
p508
sg10
S'Categorical'
p509
sg12
S'Classification'
p510
sg14
S'1988'
p511
sa(dp512
g2
S'209'
p513
sg4
S'Mechanical Analysis'
p514
sg6
S'Multivariate'
p515
sg8
S'8'
p516
sg10
S'Categorical, Integer, Real'
p517
sg12
S'Classification'
p518
sg14
S'1990'
p519
sa(dp520
g2
S'528'
p521
sg4
S'Meta-data'
p522
sg6
S'Multivariate'
p523
sg8
S'22'
p524
sg10
S'Categorical, Integer, Real'
p525
sg12
S'Classification'
p526
sg14
S'1996'
p527
sa(dp528
g2
S''
p529
sg4
S'Mobile Robots'
p530
sg6
S'Domain-Theory'
p531
sg8
S''
p532
sg10
S'Categorical, Integer, Real'
p533
sg12
S''
p534
sg14
S'1995'
p535
sa(dp536
g2
S'106'
p537
sg4
S'Molecular Biology (Promoter Gene Sequences)'
p538
sg6
S'Sequential, Domain-Theory'
p539
sg8
S'58'
p540
sg10
S'Categorical'
p541
sg12
S'Classification'
p542
sg14
S'1990'
p543
sa(dp544
g2
S'128'
p545
sg4
S'Molecular Biology (Protein Secondary Structure)'
p546
sg6
S'Sequential'
p547
sg8
S''
p548
sg10
S'Categorical'
p549
sg12
S'Classification'
p550
sg14
S''
p551
sa(dp552
g2
S'3190'
p553
sg4
S'Molecular Biology (Splice-junction Gene Sequences)'
p554
sg6
S'Sequential, Domain-Theory'
p555
sg8
S'61'
p556
sg10
S'Categorical'
p557
sg12
S'Classification'
p558
sg14
S'1992'
p559
sa(dp560
g2
S'432'
p561
sg4
S"MONK's Problems"
p562
sg6
S'Multivariate'
p563
sg8
S'7'
p564
sg10
S'Categorical'
p565
sg12
S'Classification'
p566
sg14
S'1992'
p567
sa(dp568
g2
S'202'
p569
sg4
S'Moral Reasoner'
p570
sg6
S'Domain-Theory'
p571
sg8
S''
p572
sg10
S''
p573
sg12
S''
p574
sg14
S'1994'
p575
sa(dp576
g2
S'2000'
p577
sg4
S'Multiple Features'
p578
sg6
S'Multivariate'
p579
sg8
S'649'
p580
sg10
S'Integer, Real'
p581
sg12
S'Classification'
p582
sg14
S''
p583
sa(dp584
g2
S'8124'
p585
sg4
S'Mushroom'
p586
sg6
S'Multivariate'
p587
sg8
S'22'
p588
sg10
S'Categorical'
p589
sg12
S'Classification'
p590
sg14
S'1987'
p591
sa(dp592
g2
S'476'
p593
sg4
S'Musk (Version 1)'
p594
sg6
S'Multivariate'
p595
sg8
S'168'
p596
sg10
S'Integer'
p597
sg12
S'Classification'
p598
sg14
S'1994'
p599
sa(dp600
g2
S'6598'
p601
sg4
S'Musk (Version 2)'
p602
sg6
S'Multivariate'
p603
sg8
S'168'
p604
sg10
S'Integer'
p605
sg12
S'Classification'
p606
sg14
S'1994'
p607
sa(dp608
g2
S'12960'
p609
sg4
S'Nursery'
p610
sg6
S'Multivariate'
p611
sg8
S'8'
p612
sg10
S'Categorical'
p613
sg12
S'Classification'
p614
sg14
S'1997'
p615
sa(dp616
g2
S''
p617
sg4
S'Othello Domain Theory'
p618
sg6
S'Domain-Theory'
p619
sg8
S''
p620
sg10
S''
p621
sg12
S''
p622
sg14
S'1991'
p623
sa(dp624
g2
S'5473'
p625
sg4
S'Page Blocks Classification'
p626
sg6
S'Multivariate'
p627
sg8
S'10'
p628
sg10
S'Integer, Real'
p629
sg12
S'Classification'
p630
sg14
S'1995'
p631
sa(dp632
g2
S'768'
p633
sg4
S'Pima Indians Diabetes'
p634
sg6
S'Multivariate'
p635
sg8
S'8'
p636
sg10
S'Integer, Real'
p637
sg12
S'Classification'
p638
sg14
S'1990'
p639
sa(dp640
g2
S'5620'
p641
sg4
S'Optical Recognition of Handwritten Digits'
p642
sg6
S'Multivariate'
p643
sg8
S'64'
p644
sg10
S'Integer'
p645
sg12
S'Classification'
p646
sg14
S'1998'
p647
sa(dp648
g2
S'10992'
p649
sg4
S'Pen-Based Recognition of Handwritten Digits'
p650
sg6
S'Multivariate'
p651
sg8
S'16'
p652
sg10
S'Integer'
p653
sg12
S'Classification'
p654
sg14
S'1998'
p655
sa(dp656
g2
S'90'
p657
sg4
S'Post-Operative Patient'
p658
sg6
S'Multivariate'
p659
sg8
S'8'
p660
sg10
S'Categorical, Integer'
p661
sg12
S'Classification'
p662
sg14
S'1993'
p663
sa(dp664
g2
S'339'
p665
sg4
S'Primary Tumor'
p666
sg6
S'Multivariate'
p667
sg8
S'17'
p668
sg10
S'Categorical'
p669
sg12
S'Classification'
p670
sg14
S'1988'
p671
sa(dp672
g2
S''
p673
sg4
S'Prodigy'
p674
sg6
S'Domain-Theory'
p675
sg8
S''
p676
sg10
S''
p677
sg12
S''
p678
sg14
S''
p679
sa(dp680
g2
S''
p681
sg4
S'Qualitative Structure Activity Relationships'
p682
sg6
S'Domain-Theory'
p683
sg8
S''
p684
sg10
S''
p685
sg12
S''
p686
sg14
S''
p687
sa(dp688
g2
S''
p689
sg4
S'Quadruped Mammals'
p690
sg6
S'Multivariate, Data-Generator'
p691
sg8
S'72'
p692
sg10
S'Real'
p693
sg12
S'Classification'
p694
sg14
S'1992'
p695
sa(dp696
g2
S'167'
p697
sg4
S'Servo'
p698
sg6
S'Multivariate'
p699
sg8
S'4'
p700
sg10
S'Categorical, Integer'
p701
sg12
S'Regression'
p702
sg14
S'1993'
p703
sa(dp704
g2
S'15'
p705
sg4
S'Shuttle Landing Control'
p706
sg6
S'Multivariate'
p707
sg8
S'6'
p708
sg10
S'Categorical'
p709
sg12
S'Classification'
p710
sg14
S'1988'
p711
sa(dp712
g2
S'1389'
p713
sg4
S'Solar Flare'
p714
sg6
S'Multivariate'
p715
sg8
S'10'
p716
sg10
S'Categorical'
p717
sg12
S'Regression'
p718
sg14
S'1989'
p719
sa(dp720
g2
S'307'
p721
sg4
S'Soybean (Large)'
p722
sg6
S'Multivariate'
p723
sg8
S'35'
p724
sg10
S'Categorical'
p725
sg12
S'Classification'
p726
sg14
S'1988'
p727
sa(dp728
g2
S'47'
p729
sg4
S'Soybean (Small)'
p730
sg6
S'Multivariate'
p731
sg8
S'35'
p732
sg10
S'Categorical'
p733
sg12
S'Classification'
p734
sg14
S'1987'
p735
sa(dp736
g2
S'23'
p737
sg4
S'Challenger USA Space Shuttle O-Ring'
p738
sg6
S'Multivariate'
p739
sg8
S'4'
p740
sg10
S'Integer'
p741
sg12
S'Regression'
p742
sg14
S'1993'
p743
sa(dp744
g2
S'531'
p745
sg4
S'Low Resolution Spectrometer'
p746
sg6
S'Multivariate'
p747
sg8
S'102'
p748
sg10
S'Integer, Real'
p749
sg12
S'Classification'
p750
sg14
S'1988'
p751
sa(dp752
g2
S'4601'
p753
sg4
S'Spambase'
p754
sg6
S'Multivariate'
p755
sg8
S'57'
p756
sg10
S'Integer, Real'
p757
sg12
S'Classification'
p758
sg14
S'1999'
p759
sa(dp760
g2
S'267'
p761
sg4
S'SPECT Heart'
p762
sg6
S'Multivariate'
p763
sg8
S'22'
p764
sg10
S'Categorical'
p765
sg12
S'Classification'
p766
sg14
S'2001'
p767
sa(dp768
g2
S'267'
p769
sg4
S'SPECTF Heart'
p770
sg6
S'Multivariate'
p771
sg8
S'44'
p772
sg10
S'Integer'
p773
sg12
S'Classification'
p774
sg14
S'2001'
p775
sa(dp776
g2
S'76'
p777
sg4
S'Sponge'
p778
sg6
S'Multivariate'
p779
sg8
S'45'
p780
sg10
S'Categorical, Integer'
p781
sg12
S'Clustering'
p782
sg14
S''
p783
sa(dp784
g2
S''
p785
sg4
S'Statlog Project'
p786
sg6
S''
p787
sg8
S''
p788
sg10
S''
p789
sg12
S''
p790
sg14
S'1992'
p791
sa(dp792
g2
S'1000'
p793
sg4
S'Student Loan Relational'
p794
sg6
S'Domain-Theory'
p795
sg8
S''
p796
sg10
S''
p797
sg12
S''
p798
sg14
S'1993'
p799
sa(dp800
g2
S'151'
p801
sg4
S'Teaching Assistant Evaluation'
p802
sg6
S'Multivariate'
p803
sg8
S'5'
p804
sg10
S'Categorical, Integer'
p805
sg12
S'Classification'
p806
sg14
S'1997'
p807
sa(dp808
g2
S'958'
p809
sg4
S'Tic-Tac-Toe Endgame'
p810
sg6
S'Multivariate'
p811
sg8
S'9'
p812
sg10
S'Categorical'
p813
sg12
S'Classification'
p814
sg14
S'1991'
p815
sa(dp816
g2
S'7200'
p817
sg4
S'Thyroid Disease'
p818
sg6
S'Multivariate, Domain-Theory'
p819
sg8
S'21'
p820
sg10
S'Categorical, Real'
p821
sg12
S'Classification'
p822
sg14
S'1987'
p823
sa(dp824
g2
S'10'
p825
sg4
S'Trains'
p826
sg6
S'Multivariate'
p827
sg8
S'32'
p828
sg10
S'Categorical'
p829
sg12
S'Classification'
p830
sg14
S'1994'
p831
sa(dp832
g2
S'285'
p833
sg4
S'University'
p834
sg6
S'Multivariate'
p835
sg8
S'17'
p836
sg10
S'Categorical, Integer'
p837
sg12
S'Classification'
p838
sg14
S'1988'
p839
sa(dp840
g2
S'435'
p841
sg4
S'Congressional Voting Records'
p842
sg6
S'Multivariate'
p843
sg8
S'16'
p844
sg10
S'Categorical'
p845
sg12
S'Classification'
p846
sg14
S'1987'
p847
sa(dp848
g2
S'527'
p849
sg4
S'Water Treatment Plant'
p850
sg6
S'Multivariate'
p851
sg8
S'38'
p852
sg10
S'Integer, Real'
p853
sg12
S'Clustering'
p854
sg14
S'1993'
p855
sa(dp856
g2
S'5000'
p857
sg4
S'Waveform Database Generator (Version 1)'
p858
sg6
S'Multivariate, Data-Generator'
p859
sg8
S'21'
p860
sg10
S'Real'
p861
sg12
S'Classification'
p862
sg14
S'1988'
p863
sa(dp864
g2
S'5000'
p865
sg4
S'Waveform Database Generator (Version 2)'
p866
sg6
S'Multivariate, Data-Generator'
p867
sg8
S'40'
p868
sg10
S'Real'
p869
sg12
S'Classification'
p870
sg14
S'1988'
p871
sa(dp872
g2
S'178'
p873
sg4
S'Wine'
p874
sg6
S'Multivariate'
p875
sg8
S'13'
p876
sg10
S'Integer, Real'
p877
sg12
S'Classification'
p878
sg14
S'1991'
p879
sa(dp880
g2
S'1484'
p881
sg4
S'Yeast'
p882
sg6
S'Multivariate'
p883
sg8
S'8'
p884
sg10
S'Real'
p885
sg12
S'Classification'
p886
sg14
S'1996'
p887
sa(dp888
g2
S'101'
p889
sg4
S'Zoo'
p890
sg6
S'Multivariate'
p891
sg8
S'17'
p892
sg10
S'Categorical, Integer'
p893
sg12
S'Classification'
p894
sg14
S'1990'
p895
sa(dp896
g2
S''
p897
sg4
S'Undocumented'
p898
sg6
S''
p899
sg8
S''
p900
sg10
S''
p901
sg12
S''
p902
sg14
S''
p903
sa(dp904
g2
S'20000'
p905
sg4
S'Twenty Newsgroups'
p906
sg6
S'Text'
p907
sg8
S''
p908
sg10
S''
p909
sg12
S''
p910
sg14
S'1999'
p911
sa(dp912
g2
S'6650'
p913
sg4
S'Australian Sign Language signs'
p914
sg6
S'Multivariate, Time-Series'
p915
sg8
S'15'
p916
sg10
S'Categorical, Real'
p917
sg12
S'Classification'
p918
sg14
S'1999'
p919
sa(dp920
g2
S'2565'
p921
sg4
S'Australian Sign Language signs (High Quality)'
p922
sg6
S'Multivariate, Time-Series'
p923
sg8
S'22'
p924
sg10
S'Real'
p925
sg12
S'Classification'
p926
sg14
S'2002'
p927
sa(dp928
g2
S'2458285'
p929
sg4
S'US Census Data (1990)'
p930
sg6
S'Multivariate'
p931
sg8
S'68'
p932
sg10
S'Categorical'
p933
sg12
S'Clustering'
p934
sg14
S''
p935
sa(dp936
g2
S'299285'
p937
sg4
S'Census-Income (KDD)'
p938
sg6
S'Multivariate'
p939
sg8
S'40'
p940
sg10
S'Categorical, Integer'
p941
sg12
S'Classification'
p942
sg14
S'2000'
p943
sa(dp944
g2
S'340'
p945
sg4
S'Coil 1999 Competition Data'
p946
sg6
S'Multivariate'
p947
sg8
S'17'
p948
sg10
S'Categorical, Real'
p949
sg12
S''
p950
sg14
S'1999'
p951
sa(dp952
g2
S'68040'
p953
sg4
S'Corel Image Features'
p954
sg6
S'Multivariate'
p955
sg8
S'89'
p956
sg10
S'Real'
p957
sg12
S''
p958
sg14
S'1999'
p959
sa(dp960
g2
S''
p961
sg4
S'E. Coli Genes'
p962
sg6
S'Relational'
p963
sg8
S''
p964
sg10
S''
p965
sg12
S''
p966
sg14
S'2001'
p967
sa(dp968
g2
S'122'
p969
sg4
S'EEG Database'
p970
sg6
S'Multivariate, Time-Series'
p971
sg8
S'4'
p972
sg10
S'Categorical, Integer, Real'
p973
sg12
S''
p974
sg14
S'1999'
p975
sa(dp976
g2
S'178080'
p977
sg4
S'El Nino'
p978
sg6
S'Spatio-temporal'
p979
sg8
S'12'
p980
sg10
S'Integer, Real'
p981
sg12
S''
p982
sg14
S'1999'
p983
sa(dp984
g2
S'50672'
p985
sg4
S'Entree Chicago Recommendation Data'
p986
sg6
S'Transactional, Sequential'
p987
sg8
S''
p988
sg10
S'Categorical'
p989
sg12
S'Recommender-Systems'
p990
sg14
S'2000'
p991
sa(dp992
g2
S'640'
p993
sg4
S'CMU Face Images'
p994
sg6
S'Image'
p995
sg8
S''
p996
sg10
S'Integer'
p997
sg12
S'Classification'
p998
sg14
S'1999'
p999
sa(dp1000
g2
S'9000'
p1001
sg4
S'Insurance Company Benchmark (COIL 2000)'
p1002
sg6
S'Multivariate'
p1003
sg8
S'86'
p1004
sg10
S'Categorical, Integer'
p1005
sg12
S'Regression, Description'
p1006
sg14
S'2000'
p1007
sa(dp1008
g2
S'10104'
p1009
sg4
S'Internet Usage Data'
p1010
sg6
S'Multivariate'
p1011
sg8
S'72'
p1012
sg10
S'Categorical, Integer'
p1013
sg12
S''
p1014
sg14
S'1999'
p1015
sa(dp1016
g2
S'256932'
p1017
sg4
S'IPUMS Census Database'
p1018
sg6
S'Multivariate'
p1019
sg8
S'61'
p1020
sg10
S'Categorical, Integer'
p1021
sg12
S''
p1022
sg14
S'1999'
p1023
sa(dp1024
g2
S'640'
p1025
sg4
S'Japanese Vowels'
p1026
sg6
S'Multivariate, Time-Series'
p1027
sg8
S'12'
p1028
sg10
S'Real'
p1029
sg12
S'Classification'
p1030
sg14
S''
p1031
sa(dp1032
g2
S'191779'
p1033
sg4
S'KDD Cup 1998 Data'
p1034
sg6
S'Multivariate'
p1035
sg8
S'481'
p1036
sg10
S'Categorical, Integer'
p1037
sg12
S'Regression'
p1038
sg14
S'1998'
p1039
sa(dp1040
g2
S'4000000'
p1041
sg4
S'KDD Cup 1999 Data'
p1042
sg6
S'Multivariate'
p1043
sg8
S'42'
p1044
sg10
S'Categorical, Integer'
p1045
sg12
S'Classification'
p1046
sg14
S'1999'
p1047
sa(dp1048
g2
S''
p1049
sg4
S'M. Tuberculosis Genes'
p1050
sg6
S'Relational'
p1051
sg8
S''
p1052
sg10
S''
p1053
sg12
S''
p1054
sg14
S'2001'
p1055
sa(dp1056
g2
S'10000'
p1057
sg4
S'Movie'
p1058
sg6
S'Multivariate, Relational'
p1059
sg8
S''
p1060
sg10
S''
p1061
sg12
S''
p1062
sg14
S'1999'
p1063
sa(dp1064
g2
S'989818'
p1065
sg4
S'MSNBC.com Anonymous Web Data'
p1066
sg6
S'Sequential'
p1067
sg8
S''
p1068
sg10
S'Categorical'
p1069
sg12
S''
p1070
sg14
S''
p1071
sa(dp1072
g2
S'129000'
p1073
sg4
S'NSF Research Award Abstracts 1990-2003'
p1074
sg6
S'Text'
p1075
sg8
S''
p1076
sg10
S''
p1077
sg12
S''
p1078
sg14
S'2003'
p1079
sa(dp1080
g2
S''
p1081
sg4
S'Pioneer-1 Mobile Robot Data'
p1082
sg6
S'Multivariate, Time-Series'
p1083
sg8
S''
p1084
sg10
S'Categorical, Real'
p1085
sg12
S''
p1086
sg14
S'1999'
p1087
sa(dp1088
g2
S'100000'
p1089
sg4
S'Pseudo Periodic Synthetic Time Series'
p1090
sg6
S'Univariate, Time-Series'
p1091
sg8
S''
p1092
sg10
S''
p1093
sg12
S''
p1094
sg14
S'1999'
p1095
sa(dp1096
g2
S'21578'
p1097
sg4
S'Reuters-21578 Text Categorization Collection'
p1098
sg6
S'Text'
p1099
sg8
S'5'
p1100
sg10
S'Categorical'
p1101
sg12
S'Classification'
p1102
sg14
S'1997'
p1103
sa(dp1104
g2
S'463'
p1105
sg4
S'Robot Execution Failures'
p1106
sg6
S'Multivariate, Time-Series'
p1107
sg8
S'90'
p1108
sg10
S'Integer'
p1109
sg12
S'Classification'
p1110
sg14
S'1999'
p1111
sa(dp1112
g2
S'600'
p1113
sg4
S'Synthetic Control Chart Time Series'
p1114
sg6
S'Time-Series'
p1115
sg8
S''
p1116
sg10
S'Real'
p1117
sg12
S'Classification, Clustering'
p1118
sg14
S'1999'
p1119
sa(dp1120
g2
S'332'
p1121
sg4
S'Syskill and Webert Web Page Ratings'
p1122
sg6
S'Multivariate, Text'
p1123
sg8
S'5'
p1124
sg10
S'Categorical'
p1125
sg12
S'Classification'
p1126
sg14
S'1998'
p1127
sa(dp1128
g2
S''
p1129
sg4
S'UNIX User Data'
p1130
sg6
S'Text, Sequential'
p1131
sg8
S''
p1132
sg10
S''
p1133
sg12
S''
p1134
sg14
S''
p1135
sa(dp1136
g2
S''
p1137
sg4
S'Volcanoes on Venus - JARtool experiment'
p1138
sg6
S'Image'
p1139
sg8
S''
p1140
sg10
S''
p1141
sg12
S'Classification'
p1142
sg14
S''
p1143
sa(dp1144
g2
S'690'
p1145
sg4
S'Statlog (Australian Credit Approval)'
p1146
sg6
S'Multivariate'
p1147
sg8
S'14'
p1148
sg10
S'Categorical, Integer, Real'
p1149
sg12
S'Classification'
p1150
sg14
S''
p1151
sa(dp1152
g2
S'1000'
p1153
sg4
S'Statlog (German Credit Data)'
p1154
sg6
S'Multivariate'
p1155
sg8
S'20'
p1156
sg10
S'Categorical, Integer'
p1157
sg12
S'Classification'
p1158
sg14
S'1994'
p1159
sa(dp1160
g2
S'270'
p1161
sg4
S'Statlog (Heart)'
p1162
sg6
S'Multivariate'
p1163
sg8
S'13'
p1164
sg10
S'Categorical, Real'
p1165
sg12
S'Classification'
p1166
sg14
S''
p1167
sa(dp1168
g2
S'6435'
p1169
sg4
S'Statlog (Landsat Satellite)'
p1170
sg6
S'Multivariate'
p1171
sg8
S'36'
p1172
sg10
S'Integer'
p1173
sg12
S'Classification'
p1174
sg14
S'1993'
p1175
sa(dp1176
g2
S'2310'
p1177
sg4
S'Statlog (Image Segmentation)'
p1178
sg6
S'Multivariate'
p1179
sg8
S'19'
p1180
sg10
S'Real'
p1181
sg12
S'Classification'
p1182
sg14
S'1990'
p1183
sa(dp1184
g2
S'58000'
p1185
sg4
S'Statlog (Shuttle)'
p1186
sg6
S'Multivariate'
p1187
sg8
S'9'
p1188
sg10
S'Integer'
p1189
sg12
S'Classification'
p1190
sg14
S''
p1191
sa(dp1192
g2
S'946'
p1193
sg4
S'Statlog (Vehicle Silhouettes)'
p1194
sg6
S'Multivariate'
p1195
sg8
S'18'
p1196
sg10
S'Integer'
p1197
sg12
S'Classification'
p1198
sg14
S''
p1199
sa(dp1200
g2
S'20008'
p1201
sg4
S'Connectionist Bench (Nettalk Corpus)'
p1202
sg6
S'Multivariate'
p1203
sg8
S'4'
p1204
sg10
S'Categorical'
p1205
sg12
S''
p1206
sg14
S''
p1207
sa(dp1208
g2
S'208'
p1209
sg4
S'Connectionist Bench (Sonar, Mines vs. Rocks)'
p1210
sg6
S'Multivariate'
p1211
sg8
S'60'
p1212
sg10
S'Real'
p1213
sg12
S'Classification'
p1214
sg14
S''
p1215
sa(dp1216
g2
S'528'
p1217
sg4
S'Connectionist Bench (Vowel Recognition - Deterding Data)'
p1218
sg6
S''
p1219
sg8
S'10'
p1220
sg10
S'Real'
p1221
sg12
S'Classification'
p1222
sg14
S''
p1223
sa(dp1224
g2
S''
p1225
sg4
S'Economic Sanctions'
p1226
sg6
S'Domain-Theory'
p1227
sg8
S''
p1228
sg10
S''
p1229
sg12
S''
p1230
sg14
S''
p1231
sa(dp1232
g2
S''
p1233
sg4
S'Protein Data'
p1234
sg6
S''
p1235
sg8
S''
p1236
sg10
S''
p1237
sg12
S''
p1238
sg14
S''
p1239
sa(dp1240
g2
S'1024'
p1241
sg4
S'Cloud'
p1242
sg6
S'Multivariate'
p1243
sg8
S'10'
p1244
sg10
S'Real'
p1245
sg12
S''
p1246
sg14
S'1989'
p1247
sa(dp1248
g2
S'10080'
p1249
sg4
S'CalIt2 Building People Counts'
p1250
sg6
S'Multivariate, Time-Series'
p1251
sg8
S'4'
p1252
sg10
S'Categorical, Integer'
p1253
sg12
S''
p1254
sg14
S'2006'
p1255
sa(dp1256
g2
S'50400'
p1257
sg4
S'Dodgers Loop Sensor'
p1258
sg6
S'Multivariate, Time-Series'
p1259
sg8
S'3'
p1260
sg10
S'Categorical, Integer'
p1261
sg12
S''
p1262
sg14
S'2006'
p1263
sa(dp1264
g2
S'1025010'
p1265
sg4
S'Poker Hand'
p1266
sg6
S'Multivariate'
p1267
sg8
S'11'
p1268
sg10
S'Categorical, Integer'
p1269
sg12
S'Classification'
p1270
sg14
S'2007'
p1271
sa(dp1272
g2
S'19020'
p1273
sg4
S'MAGIC Gamma Telescope'
p1274
sg6
S'Multivariate'
p1275
sg8
S'11'
p1276
sg10
S'Real'
p1277
sg12
S'Classification'
p1278
sg14
S'2007'
p1279
sa(dp1280
g2
S'1364'
p1281
sg4
S'UJI Pen Characters'
p1282
sg6
S'Multivariate, Sequential'
p1283
sg8
S''
p1284
sg10
S'Integer'
p1285
sg12
S'Classification'
p1286
sg14
S'2007'
p1287
sa(dp1288
g2
S'961'
p1289
sg4
S'Mammographic Mass'
p1290
sg6
S'Multivariate'
p1291
sg8
S'6'
p1292
sg10
S'Integer'
p1293
sg12
S'Classification'
p1294
sg14
S'2007'
p1295
sa(dp1296
g2
S'517'
p1297
sg4
S'Forest Fires'
p1298
sg6
S'Multivariate'
p1299
sg8
S'13'
p1300
sg10
S'Real'
p1301
sg12
S'Regression'
p1302
sg14
S'2008'
p1303
sa(dp1304
g2
S'200'
p1305
sg4
S'Reuters Transcribed Subset'
p1306
sg6
S'Text'
p1307
sg8
S''
p1308
sg10
S''
p1309
sg12
S'Classification'
p1310
sg14
S'2008'
p1311
sa(dp1312
g2
S'8000000'
p1313
sg4
S'Bag of Words'
p1314
sg6
S'Text'
p1315
sg8
S'100000'
p1316
sg10
S'Integer'
p1317
sg12
S'Clustering'
p1318
sg14
S'2008'
p1319
sa(dp1320
g2
S'1030'
p1321
sg4
S'Concrete Compressive Strength'
p1322
sg6
S'Multivariate'
p1323
sg8
S'9'
p1324
sg10
S'Real'
p1325
sg12
S'Regression'
p1326
sg14
S'2007'
p1327
sa(dp1328
g2
S'606'
p1329
sg4
S'Hill-Valley'
p1330
sg6
S'Sequential'
p1331
sg8
S'101'
p1332
sg10
S'Real'
p1333
sg12
S'Classification'
p1334
sg14
S'2008'
p1335
sa(dp1336
g2
S'900'
p1337
sg4
S'Arcene'
p1338
sg6
S'Multivariate'
p1339
sg8
S'10000'
p1340
sg10
S'Real'
p1341
sg12
S'Classification'
p1342
sg14
S'2008'
p1343
sa(dp1344
g2
S'2600'
p1345
sg4
S'Dexter'
p1346
sg6
S'Multivariate'
p1347
sg8
S'20000'
p1348
sg10
S'Integer'
p1349
sg12
S'Classification'
p1350
sg14
S'2008'
p1351
sa(dp1352
g2
S'1950'
p1353
sg4
S'Dorothea'
p1354
sg6
S'Multivariate'
p1355
sg8
S'100000'
p1356
sg10
S'Integer'
p1357
sg12
S'Classification'
p1358
sg14
S'2008'
p1359
sa(dp1360
g2
S'13500'
p1361
sg4
S'Gisette'
p1362
sg6
S'Multivariate'
p1363
sg8
S'5000'
p1364
sg10
S'Integer'
p1365
sg12
S'Classification'
p1366
sg14
S'2008'
p1367
sa(dp1368
g2
S'4400'
p1369
sg4
S'Madelon'
p1370
sg6
S'Multivariate'
p1371
sg8
S'500'
p1372
sg10
S'Real'
p1373
sg12
S'Classification'
p1374
sg14
S'2008'
p1375
sa(dp1376
g2
S'2536'
p1377
sg4
S'Ozone Level Detection'
p1378
sg6
S'Multivariate, Sequential, Time-Series'
p1379
sg8
S'73'
p1380
sg10
S'Real'
p1381
sg12
S'Classification'
p1382
sg14
S'2008'
p1383
sa(dp1384
g2
S'300'
p1385
sg4
S'Abscisic Acid Signaling Network'
p1386
sg6
S'Multivariate'
p1387
sg8
S'43'
p1388
sg10
S'Integer'
p1389
sg12
S'Causal-Discovery'
p1390
sg14
S'2008'
p1391
sa(dp1392
g2
S'197'
p1393
sg4
S'Parkinsons'
p1394
sg6
S'Multivariate'
p1395
sg8
S'23'
p1396
sg10
S'Real'
p1397
sg12
S'Classification'
p1398
sg14
S'2008'
p1399
sa(dp1400
g2
S'2858'
p1401
sg4
S'Character Trajectories'
p1402
sg6
S'Time-Series'
p1403
sg8
S'3'
p1404
sg10
S'Real'
p1405
sg12
S'Classification, Clustering'
p1406
sg14
S'2008'
p1407
sa(dp1408
g2
S'748'
p1409
sg4
S'Blood Transfusion Service Center'
p1410
sg6
S'Multivariate'
p1411
sg8
S'5'
p1412
sg10
S'Real'
p1413
sg12
S'Classification'
p1414
sg14
S'2008'
p1415
sa(dp1416
g2
S'11640'
p1417
sg4
S'UJI Pen Characters (Version 2)'
p1418
sg6
S'Multivariate, Sequential'
p1419
sg8
S''
p1420
sg10
S'Integer'
p1421
sg12
S'Classification'
p1422
sg14
S'2009'
p1423
sa(dp1424
g2
S'1593'
p1425
sg4
S'Semeion Handwritten Digit'
p1426
sg6
S'Multivariate'
p1427
sg8
S'256'
p1428
sg10
S'Integer'
p1429
sg12
S'Classification'
p1430
sg14
S'2008'
p1431
sa(dp1432
g2
S'1567'
p1433
sg4
S'SECOM'
p1434
sg6
S'Multivariate'
p1435
sg8
S'591'
p1436
sg10
S'Real'
p1437
sg12
S'Classification, Causal-Discovery'
p1438
sg14
S'2008'
p1439
sa(dp1440
g2
S'22632'
p1441
sg4
S'Plants'
p1442
sg6
S'Multivariate'
p1443
sg8
S'70'
p1444
sg10
S'Categorical'
p1445
sg12
S'Clustering'
p1446
sg14
S'2008'
p1447
sa(dp1448
g2
S'360'
p1449
sg4
S'Libras Movement'
p1450
sg6
S'Multivariate, Sequential'
p1451
sg8
S'91'
p1452
sg10
S'Real'
p1453
sg12
S'Classification, Clustering'
p1454
sg14
S'2009'
p1455
sa(dp1456
g2
S'103'
p1457
sg4
S'Concrete Slump Test'
p1458
sg6
S'Multivariate'
p1459
sg8
S'10'
p1460
sg10
S'Real'
p1461
sg12
S'Regression'
p1462
sg14
S'2009'
p1463
sa(dp1464
g2
S'1994'
p1465
sg4
S'Communities and Crime'
p1466
sg6
S'Multivariate'
p1467
sg8
S'128'
p1468
sg10
S'Real'
p1469
sg12
S'Regression'
p1470
sg14
S'2009'
p1471
sa(dp1472
g2
S'120'
p1473
sg4
S'Acute Inflammations'
p1474
sg6
S'Multivariate'
p1475
sg8
S'6'
p1476
sg10
S'Categorical, Integer'
p1477
sg12
S'Classification'
p1478
sg14
S'2009'
p1479
sa(dp1480
g2
S'4898'
p1481
sg4
S'Wine Quality'
p1482
sg6
S'Multivariate'
p1483
sg8
S'12'
p1484
sg10
S'Real'
p1485
sg12
S'Classification, Regression'
p1486
sg14
S'2009'
p1487
sa(dp1488
g2
S'2396130'
p1489
sg4
S'URL Reputation'
p1490
sg6
S'Multivariate, Time-Series'
p1491
sg8
S'3231961'
p1492
sg10
S'Integer, Real'
p1493
sg12
S'Classification'
p1494
sg14
S'2009'
p1495
sa(dp1496
g2
S'16772'
p1497
sg4
S'p53 Mutants'
p1498
sg6
S'Multivariate'
p1499
sg8
S'5409'
p1500
sg10
S'Real'
p1501
sg12
S'Classification'
p1502
sg14
S'2010'
p1503
sa(dp1504
g2
S'5875'
p1505
sg4
S'Parkinsons Telemonitoring'
p1506
sg6
S'Multivariate'
p1507
sg8
S'26'
p1508
sg10
S'Integer, Real'
p1509
sg12
S'Regression'
p1510
sg14
S'2009'
p1511
sa(dp1512
g2
S'503'
p1513
sg4
S'Demospongiae'
p1514
sg6
S'Multivariate'
p1515
sg8
S''
p1516
sg10
S'Integer'
p1517
sg12
S'Classification'
p1518
sg14
S'2010'
p1519
sa(dp1520
g2
S'51'
p1521
sg4
S'Opinosis Opinion  Review'
p1522
sg6
S'Text'
p1523
sg8
S''
p1524
sg10
S''
p1525
sg12
S''
p1526
sg14
S'2010'
p1527
sa(dp1528
g2
S'106'
p1529
sg4
S'Breast Tissue'
p1530
sg6
S'Multivariate'
p1531
sg8
S'10'
p1532
sg10
S'Real'
p1533
sg12
S'Classification'
p1534
sg14
S'2010'
p1535
sa(dp1536
g2
S'2126'
p1537
sg4
S'Cardiotocography'
p1538
sg6
S'Multivariate'
p1539
sg8
S'23'
p1540
sg10
S'Real'
p1541
sg12
S'Classification'
p1542
sg14
S'2010'
p1543
sa(dp1544
g2
S'5456'
p1545
sg4
S'Wall-Following Robot Navigation Data'
p1546
sg6
S'Multivariate, Sequential'
p1547
sg8
S'24'
p1548
sg10
S'Real'
p1549
sg12
S'Classification'
p1550
sg14
S'2010'
p1551
sa(dp1552
g2
S'8800'
p1553
sg4
S'Spoken Arabic Digit'
p1554
sg6
S'Multivariate, Time-Series'
p1555
sg8
S'13'
p1556
sg10
S'Real'
p1557
sg12
S'Classification'
p1558
sg14
S'2010'
p1559
sa(dp1560
g2
S'164860'
p1561
sg4
S'Localization Data for Person Activity'
p1562
sg6
S'Univariate, Sequential, Time-Series'
p1563
sg8
S'8'
p1564
sg10
S'Real'
p1565
sg12
S'Classification'
p1566
sg14
S'2010'
p1567
sa(dp1568
g2
S''
p1569
sg4
S'AutoUniv'
p1570
sg6
S'Multivariate'
p1571
sg8
S''
p1572
sg10
S'Categorical, Integer, Real'
p1573
sg12
S'Classification'
p1574
sg14
S'2010'
p1575
sa(dp1576
g2
S'1941'
p1577
sg4
S'Steel Plates Faults'
p1578
sg6
S'Multivariate'
p1579
sg8
S'27'
p1580
sg10
S'Integer, Real'
p1581
sg12
S'Classification'
p1582
sg14
S'2010'
p1583
sa(dp1584
g2
S'130065'
p1585
sg4
S'MiniBooNE particle identification'
p1586
sg6
S'Multivariate'
p1587
sg8
S'50'
p1588
sg10
S'Real'
p1589
sg12
S'Classification'
p1590
sg14
S'2010'
p1591
sa(dp1592
g2
S'515345'
p1593
sg4
S'YearPredictionMSD'
p1594
sg6
S'Multivariate'
p1595
sg8
S'90'
p1596
sg10
S'Real'
p1597
sg12
S'Regression'
p1598
sg14
S'2011'
p1599
sa(dp1600
g2
S'440'
p1601
sg4
S'PEMS-SF'
p1602
sg6
S'Multivariate, Time-Series'
p1603
sg8
S'138672'
p1604
sg10
S'Real'
p1605
sg12
S'Classification'
p1606
sg14
S'2011'
p1607
sa(dp1608
g2
S''
p1609
sg4
S'OpinRank Review Dataset'
p1610
sg6
S'Text'
p1611
sg8
S''
p1612
sg10
S''
p1613
sg12
S''
p1614
sg14
S'2011'
p1615
sa(dp1616
g2
S'53500'
p1617
sg4
S'Relative location of CT slices on axial axis'
p1618
sg6
S'Domain-Theory'
p1619
sg8
S'386'
p1620
sg10
S'Real'
p1621
sg12
S'Regression'
p1622
sg14
S'2011'
p1623
sa(dp1624
g2
S'8235'
p1625
sg4
S'Online Handwritten Assamese Characters Dataset'
p1626
sg6
S'Multivariate, Sequential'
p1627
sg8
S''
p1628
sg10
S'Integer'
p1629
sg12
S'Classification'
p1630
sg14
S'2011'
p1631
sa(dp1632
g2
S''
p1633
sg4
S'PubChem Bioassay Data'
p1634
sg6
S'Multivariate'
p1635
sg8
S''
p1636
sg10
S'Integer, Real'
p1637
sg12
S'Classification'
p1638
sg14
S'2011'
p1639
sa(dp1640
g2
S'5749132'
p1641
sg4
S'Record Linkage Comparison Patterns'
p1642
sg6
S'Multivariate'
p1643
sg8
S'12'
p1644
sg10
S'Real'
p1645
sg12
S'Classification'
p1646
sg14
S'2011'
p1647
sa(dp1648
g2
S'2215'
p1649
sg4
S'Communities and Crime Unnormalized'
p1650
sg6
S'Multivariate'
p1651
sg8
S'147'
p1652
sg10
S'Real'
p1653
sg12
S'Regression'
p1654
sg14
S'2011'
p1655
sa(dp1656
g2
S'310'
p1657
sg4
S'Vertebral Column'
p1658
sg6
S'Multivariate'
p1659
sg8
S'6'
p1660
sg10
S'Real'
p1661
sg12
S'Classification'
p1662
sg14
S'2011'
p1663
sa(dp1664
g2
S'10000'
p1665
sg4
S'EMG Physical Action Data Set'
p1666
sg6
S'Time-Series'
p1667
sg8
S'8'
p1668
sg10
S'Real'
p1669
sg12
S'Classification'
p1670
sg14
S'2011'
p1671
sa(dp1672
g2
S'3000'
p1673
sg4
S'Vicon Physical Action Data Set'
p1674
sg6
S'Time-Series'
p1675
sg8
S'27'
p1676
sg10
S'Real'
p1677
sg12
S'Classification'
p1678
sg14
S'2011'
p1679
sa(dp1680
g2
S'1500'
p1681
sg4
S'Amazon Commerce reviews set'
p1682
sg6
S'Multivariate, Text, Domain-Theory'
p1683
sg8
S'10000'
p1684
sg10
S'Real'
p1685
sg12
S'Classification'
p1686
sg14
S'2011'
p1687
sa(dp1688
g2
S'30000'
p1689
sg4
S'Amazon Access Samples'
p1690
sg6
S'Time-Series, Domain-Theory'
p1691
sg8
S'20000'
p1692
sg10
S''
p1693
sg12
S'Regression, Clustering, Causal-Discovery'
p1694
sg14
S'2011'
p1695
sa(dp1696
g2
S'2500'
p1697
sg4
S'Reuter_50_50'
p1698
sg6
S'Multivariate, Text, Domain-Theory'
p1699
sg8
S'10000'
p1700
sg10
S'Real'
p1701
sg12
S'Classification, Clustering'
p1702
sg14
S'2011'
p1703
sa(dp1704
g2
S'4143'
p1705
sg4
S'Farm Ads'
p1706
sg6
S'Text'
p1707
sg8
S'54877'
p1708
sg10
S''
p1709
sg12
S'Classification'
p1710
sg14
S'2011'
p1711
sa(dp1712
g2
S'64'
p1713
sg4
S'DBWorld e-mails'
p1714
sg6
S'Text'
p1715
sg8
S'4702'
p1716
sg10
S''
p1717
sg12
S'Classification'
p1718
sg14
S'2011'
p1719
sa(dp1720
g2
S'53414'
p1721
sg4
S'KEGG Metabolic Relation Network (Directed)'
p1722
sg6
S'Multivariate, Univariate, Text'
p1723
sg8
S'24'
p1724
sg10
S'Integer, Real'
p1725
sg12
S'Classification, Regression, Clustering'
p1726
sg14
S'2011'
p1727
sa(dp1728
g2
S'65554'
p1729
sg4
S'KEGG Metabolic Reaction Network (Undirected)'
p1730
sg6
S'Multivariate, Univariate, Text'
p1731
sg8
S'29'
p1732
sg10
S'Integer, Real'
p1733
sg12
S'Classification, Regression, Clustering'
p1734
sg14
S'2011'
p1735
sa(dp1736
g2
S'45211'
p1737
sg4
S'Bank Marketing'
p1738
sg6
S'Multivariate'
p1739
sg8
S'17'
p1740
sg10
S'Real'
p1741
sg12
S'Classification'
p1742
sg14
S'2012'
p1743
sa(dp1744
g2
S'1138562'
p1745
sg4
S'YouTube Comedy Slam Preference Data'
p1746
sg6
S'Text'
p1747
sg8
S'3'
p1748
sg10
S''
p1749
sg12
S'Classification'
p1750
sg14
S'2012'
p1751
sa(dp1752
g2
S'13910'
p1753
sg4
S'Gas Sensor Array Drift Dataset'
p1754
sg6
S'Multivariate'
p1755
sg8
S'128'
p1756
sg10
S'Real'
p1757
sg12
S'Classification'
p1758
sg14
S'2012'
p1759
sa(dp1760
g2
S'583'
p1761
sg4
S'ILPD (Indian Liver Patient Dataset)'
p1762
sg6
S'Multivariate'
p1763
sg8
S'10'
p1764
sg10
S'Integer, Real'
p1765
sg12
S'Classification'
p1766
sg14
S'2012'
p1767
sa(dp1768
g2
S'2551'
p1769
sg4
S'OPPORTUNITY Activity Recognition'
p1770
sg6
S'Multivariate, Time-Series'
p1771
sg8
S'242'
p1772
sg10
S'Real'
p1773
sg12
S'Classification'
p1774
sg14
S'2012'
p1775
sa(dp1776
g2
S'34465'
p1777
sg4
S'Nomao'
p1778
sg6
S'Univariate'
p1779
sg8
S'120'
p1780
sg10
S'Real'
p1781
sg12
S'Classification'
p1782
sg14
S'2012'
p1783
sa(dp1784
g2
S'5574'
p1785
sg4
S'SMS Spam Collection'
p1786
sg6
S'Multivariate, Text, Domain-Theory'
p1787
sg8
S''
p1788
sg10
S'Real'
p1789
sg12
S'Classification, Clustering'
p1790
sg14
S'2012'
p1791
sa(dp1792
g2
S'245057'
p1793
sg4
S'Skin Segmentation'
p1794
sg6
S'Univariate'
p1795
sg8
S'4'
p1796
sg10
S'Real'
p1797
sg12
S'Classification'
p1798
sg14
S'2012'
p1799
sa(dp1800
g2
S'182'
p1801
sg4
S'Planning Relax'
p1802
sg6
S'Univariate'
p1803
sg8
S'13'
p1804
sg10
S'Real'
p1805
sg12
S'Classification'
p1806
sg14
S'2012'
p1807
sa(dp1808
g2
S'3850505'
p1809
sg4
S'PAMAP2 Physical Activity Monitoring'
p1810
sg6
S'Multivariate, Time-Series'
p1811
sg8
S'52'
p1812
sg10
S'Real'
p1813
sg12
S'Classification'
p1814
sg14
S'2012'
p1815
sa(dp1816
g2
S'138'
p1817
sg4
S'Restaurant & consumer data'
p1818
sg6
S'Multivariate'
p1819
sg8
S'47'
p1820
sg10
S''
p1821
sg12
S''
p1822
sg14
S'2012'
p1823
sa(dp1824
g2
S'1080'
p1825
sg4
S'CNAE-9'
p1826
sg6
S'Multivariate, Text'
p1827
sg8
S'857'
p1828
sg10
S'Integer'
p1829
sg12
S'Classification'
p1830
sg14
S'2012'
p1831
sa(dp1832
g2
S'2075259'
p1833
sg4
S'Individual household electric power consumption'
p1834
sg6
S'Multivariate, Time-Series'
p1835
sg8
S'9'
p1836
sg10
S'Real'
p1837
sg12
S'Regression, Clustering'
p1838
sg14
S'2012'
p1839
sa(dp1840
g2
S'210'
p1841
sg4
S'seeds'
p1842
sg6
S'Multivariate'
p1843
sg8
S'7'
p1844
sg10
S'Real'
p1845
sg12
S'Classification, Clustering'
p1846
sg14
S'2012'
p1847
sa(dp1848
g2
S'115'
p1849
sg4
S'Northix'
p1850
sg6
S'Multivariate, Univariate, Text'
p1851
sg8
S'200'
p1852
sg10
S'Integer, Real'
p1853
sg12
S'Classification'
p1854
sg14
S'2012'
p1855
sa(dp1856
g2
S'3960456'
p1857
sg4
S'QtyT40I10D100K'
p1858
sg6
S'Sequential'
p1859
sg8
S'4'
p1860
sg10
S'Integer'
p1861
sg12
S''
p1862
sg14
S'2012'
p1863
sa(dp1864
g2
S''
p1865
sg4
S'Legal Case Reports'
p1866
sg6
S'Text'
p1867
sg8
S''
p1868
sg10
S''
p1869
sg12
S'Classification'
p1870
sg14
S'2012'
p1871
sa(dp1872
g2
S'10299'
p1873
sg4
S'Human Activity Recognition Using Smartphones'
p1874
sg6
S'Multivariate, Time-Series'
p1875
sg8
S'561'
p1876
sg10
S''
p1877
sg12
S'Classification, Clustering'
p1878
sg14
S'2012'
p1879
sa(dp1880
g2
S'1600'
p1881
sg4
S'One-hundred plant species leaves data set'
p1882
sg6
S''
p1883
sg8
S'64'
p1884
sg10
S'Real'
p1885
sg12
S'Classification'
p1886
sg14
S'2012'
p1887
sa(dp1888
g2
S'768'
p1889
sg4
S'Energy efficiency'
p1890
sg6
S'Multivariate'
p1891
sg8
S'8'
p1892
sg10
S'Integer, Real'
p1893
sg12
S'Classification, Regression'
p1894
sg14
S'2012'
p1895
sa(dp1896
g2
S'308'
p1897
sg4
S'Yacht Hydrodynamics'
p1898
sg6
S'Multivariate'
p1899
sg8
S'7'
p1900
sg10
S'Real'
p1901
sg12
S'Regression'
p1902
sg14
S'2013'
p1903
sa(dp1904
g2
S'100'
p1905
sg4
S'Fertility'
p1906
sg6
S'Multivariate'
p1907
sg8
S'10'
p1908
sg10
S'Real'
p1909
sg12
S'Classification, Regression'
p1910
sg14
S'2013'
p1911
sa(dp1912
g2
S'237'
p1913
sg4
S'Daphnet Freezing of Gait'
p1914
sg6
S'Multivariate, Time-Series'
p1915
sg8
S'9'
p1916
sg10
S'Real'
p1917
sg12
S'Classification'
p1918
sg14
S'2013'
p1919
sa(dp1920
g2
S'434874'
p1921
sg4
S'3D Road Network (North Jutland, Denmark)'
p1922
sg6
S'Sequential, Text'
p1923
sg8
S'4'
p1924
sg10
S'Real'
p1925
sg12
S'Regression, Clustering'
p1926
sg14
S'2013'
p1927
sa(dp1928
g2
S'536'
p1929
sg4
S'ISTANBUL STOCK EXCHANGE'
p1930
sg6
S'Multivariate, Univariate, Time-Series'
p1931
sg8
S'8'
p1932
sg10
S'Real'
p1933
sg12
S'Classification, Regression'
p1934
sg14
S'2013'
p1935
sa(dp1936
g2
S'140000'
p1937
sg4
S'Buzz in social media '
p1938
sg6
S'Time-Series, Multivariate'
p1939
sg8
S'77'
p1940
sg10
S'Integer, Real'
p1941
sg12
S'Regression, Classification'
p1942
sg14
S'2013'
p1943
sa(dp1944
g2
S'6118'
p1945
sg4
S'First-order theorem proving'
p1946
sg6
S'Multivariate'
p1947
sg8
S'51'
p1948
sg10
S'Real'
p1949
sg12
S'Classification'
p1950
sg14
S'2013'
p1951
sa(dp1952
g2
S'165632'
p1953
sg4
S'Wearable Computing: Classification of Body Postures and Movements (PUC-Rio)'
p1954
sg6
S'Sequential'
p1955
sg8
S'18'
p1956
sg10
S'Integer, Real'
p1957
sg12
S'Classification'
p1958
sg14
S'2013'
p1959
sa(dp1960
g2
S'18000'
p1961
sg4
S'Gas sensor arrays in open sampling settings'
p1962
sg6
S'Multivariate, Time-Series'
p1963
sg8
S'1950000'
p1964
sg10
S'Real'
p1965
sg12
S'Classification'
p1966
sg14
S'2013'
p1967
sa(dp1968
g2
S'540'
p1969
sg4
S'Climate Model Simulation Crashes'
p1970
sg6
S'Multivariate'
p1971
sg8
S'18'
p1972
sg10
S'Real'
p1973
sg12
S'Classification'
p1974
sg14
S'2013'
p1975
sa(dp1976
g2
S'931'
p1977
sg4
S'MicroMass'
p1978
sg6
S'Multivariate'
p1979
sg8
S'1300'
p1980
sg10
S'Real'
p1981
sg12
S'Classification'
p1982
sg14
S'2013'
p1983
sa(dp1984
g2
S'1055'
p1985
sg4
S'QSAR biodegradation'
p1986
sg6
S'Multivariate'
p1987
sg8
S'41'
p1988
sg10
S'Integer, Real'
p1989
sg12
S'Classification'
p1990
sg14
S'2013'
p1991
sa(dp1992
g2
S'100'
p1993
sg4
S'BLOGGER'
p1994
sg6
S'Multivariate'
p1995
sg8
S'6'
p1996
sg10
S''
p1997
sg12
S'Classification'
p1998
sg14
S'2013'
p1999
sa(dp2000
g2
S'9120'
p2001
sg4
S'Daily and Sports Activities'
p2002
sg6
S'Multivariate, Time-Series'
p2003
sg8
S'5625'
p2004
sg10
S'Real'
p2005
sg12
S'Classification, Clustering'
p2006
sg14
S'2013'
p2007
sa(dp2008
g2
S'403'
p2009
sg4
S'User Knowledge Modeling'
p2010
sg6
S'Multivariate'
p2011
sg8
S'5'
p2012
sg10
S'Integer'
p2013
sg12
S'Classification, Clustering'
p2014
sg14
S'2013'
p2015
sa(dp2016
g2
S'111740'
p2017
sg4
S'Reuters RCV1 RCV2 Multilingual, Multiview Text Categorization Test collection'
p2018
sg6
S'Multivariate'
p2019
sg8
S''
p2020
sg10
S'Real'
p2021
sg12
S'Classification'
p2022
sg14
S'2013'
p2023
sa(dp2024
g2
S'10421'
p2025
sg4
S'NYSK'
p2026
sg6
S'Multivariate, Sequential, Text'
p2027
sg8
S'7'
p2028
sg10
S''
p2029
sg12
S'Clustering'
p2030
sg14
S'2013'
p2031
sa(dp2032
g2
S'5820'
p2033
sg4
S'Turkiye Student Evaluation'
p2034
sg6
S'Multivariate'
p2035
sg8
S'33'
p2036
sg10
S''
p2037
sg12
S'Classification, Clustering'
p2038
sg14
S'2013'
p2039
sa(dp2040
g2
S'403'
p2041
sg4
S"ser Knowledge Modeling Data (Students' Knowledge Levels on DC Electrical Machines)"
p2042
sg6
S'Multivariate'
p2043
sg8
S'5'
p2044
sg10
S'Real'
p2045
sg12
S'Classification'
p2046
sg14
S'2013'
p2047
sa(dp2048
g2
S'14980'
p2049
sg4
S'EEG Eye State'
p2050
sg6
S'Multivariate, Sequential, Time-Series'
p2051
sg8
S'15'
p2052
sg10
S'Integer, Real'
p2053
sg12
S'Classification'
p2054
sg14
S'2013'
p2055
sa(dp2056
g2
S'45730'
p2057
sg4
S'Physicochemical Properties of Protein Tertiary Structure'
p2058
sg6
S'Multivariate'
p2059
sg8
S'9'
p2060
sg10
S'Real'
p2061
sg12
S'Regression'
p2062
sg14
S'2013'
p2063
sa(dp2064
g2
S'2584'
p2065
sg4
S'seismic-bumps'
p2066
sg6
S'Multivariate'
p2067
sg8
S'19'
p2068
sg10
S'Real'
p2069
sg12
S'Classification'
p2070
sg14
S'2013'
p2071
sa(dp2072
g2
S'1372'
p2073
sg4
S'banknote authentication'
p2074
sg6
S'Multivariate'
p2075
sg8
S'5'
p2076
sg10
S'Real'
p2077
sg12
S'Classification'
p2078
sg14
S'2013'
p2079
sa(dp2080
g2
S'306'
p2081
sg4
S'USPTO Algorithm Challenge, run by NASA-Harvard Tournament Lab and TopCoder    Problem: Pat'
p2082
sg6
S'Domain-Theory'
p2083
sg8
S'5'
p2084
sg10
S'Integer'
p2085
sg12
S'Classification'
p2086
sg14
S'2013'
p2087
sa(dp2088
g2
S'120000'
p2089
sg4
S'YouTube Multiview Video Games Dataset'
p2090
sg6
S'Multivariate, Text'
p2091
sg8
S'1000000'
p2092
sg10
S'Integer, Real'
p2093
sg12
S'Classification, Clustering'
p2094
sg14
S'2013'
p2095
sa(dp2096
g2
S'13910'
p2097
sg4
S'Gas Sensor Array Drift Dataset at Different Concentrations'
p2098
sg6
S'Multivariate, Time-Series'
p2099
sg8
S'129'
p2100
sg10
S'Real'
p2101
sg12
S'Classification, Regression, Clustering, Causa'
p2102
sg14
S'2013'
p2103
sa(dp2104
g2
S'2747'
p2105
sg4
S'Activities of Daily Living (ADLs) Recognition Using Binary Sensors'
p2106
sg6
S'Multivariate, Sequential, Time-Series'
p2107
sg8
S''
p2108
sg10
S''
p2109
sg12
S'Classification, Clustering'
p2110
sg14
S'2013'
p2111
sa(dp2112
g2
S'3395'
p2113
sg4
S'SkillCraft1 Master Table Dataset'
p2114
sg6
S'Multivariate'
p2115
sg8
S'20'
p2116
sg10
S'Integer, Real'
p2117
sg12
S'Regression'
p2118
sg14
S'2013'
p2119
sa(dp2120
g2
S'39242'
p2121
sg4
S'Weight Lifting Exercises monitored with Inertial Measurement Units'
p2122
sg6
S'Multivariate'
p2123
sg8
S'152'
p2124
sg10
S'Real'
p2125
sg12
S'Classification'
p2126
sg14
S'2013'
p2127
sa(dp2128
g2
S'4137'
p2129
sg4
S'SML2010'
p2130
sg6
S'Multivariate, Sequential, Time-Series, Text'
p2131
sg8
S'24'
p2132
sg10
S'Real'
p2133
sg12
S'Regression'
p2134
sg14
S'2014'
p2135
sa(dp2136
g2
S'17389'
p2137
sg4
S'Bike Sharing Dataset'
p2138
sg6
S'Univariate'
p2139
sg8
S'16'
p2140
sg10
S'Integer, Real'
p2141
sg12
S'Regression'
p2142
sg14
S'2013'
p2143
sa(dp2144
g2
S'51'
p2145
sg4
S'Predict keywords activities in a online social media'
p2146
sg6
S'Multivariate, Sequential, Time-Series'
p2147
sg8
S'35'
p2148
sg10
S'Integer, Real'
p2149
sg12
S''
p2150
sg14
S'2013'
p2151
sa(dp2152
g2
S'470'
p2153
sg4
S'Thoracic Surgery Data'
p2154
sg6
S'Multivariate'
p2155
sg8
S'17'
p2156
sg10
S'Integer, Real'
p2157
sg12
S'Classification'
p2158
sg14
S'2013'
p2159
sa(dp2160
g2
S'132'
p2161
sg4
S'EMG dataset in Lower Limb'
p2162
sg6
S'Multivariate, Time-Series'
p2163
sg8
S'5'
p2164
sg10
S'Real'
p2165
sg12
S''
p2166
sg14
S'2014'
p2167
sa(dp2168
g2
S'5000000'
p2169
sg4
S'SUSY'
p2170
sg6
S''
p2171
sg8
S'18'
p2172
sg10
S'Real'
p2173
sg12
S'Classification'
p2174
sg14
S'2014'
p2175
sa(dp2176
g2
S'11000000'
p2177
sg4
S'HIGGS'
p2178
sg6
S''
p2179
sg8
S'28'
p2180
sg10
S'Real'
p2181
sg12
S'Classification'
p2182
sg14
S'2014'
p2183
sa(dp2184
g2
S'250'
p2185
sg4
S'Qualitative_Bankruptcy'
p2186
sg6
S'Multivariate'
p2187
sg8
S'7'
p2188
sg10
S''
p2189
sg12
S'Classification'
p2190
sg14
S'2014'
p2191
sa(dp2192
g2
S'126'
p2193
sg4
S'LSVT Voice Rehabilitation'
p2194
sg6
S'Multivariate'
p2195
sg8
S'309'
p2196
sg10
S'Real'
p2197
sg12
S'Classification'
p2198
sg14
S'2014'
p2199
sa(dp2200
g2
S''
p2201
sg4
S'Dataset for ADL Recognition with Wrist-worn Accelerometer'
p2202
sg6
S'Multivariate, Time-Series'
p2203
sg8
S'3'
p2204
sg10
S''
p2205
sg12
S'Classification, Clustering'
p2206
sg14
S'2014'
p2207
sa(dp2208
g2
S'4889'
p2209
sg4
S'Wilt'
p2210
sg6
S'Multivariate'
p2211
sg8
S'6'
p2212
sg10
S''
p2213
sg12
S'Classification'
p2214
sg14
S'2014'
p2215
sa(dp2216
g2
S''
p2217
sg4
S'User Identification From Walking Activity'
p2218
sg6
S'Univariate, Sequential, Time-Series'
p2219
sg8
S''
p2220
sg10
S'Real'
p2221
sg12
S'Classification, Clustering'
p2222
sg14
S'2014'
p2223
sa(dp2224
g2
S''
p2225
sg4
S'Activity Recognition from Single Chest-Mounted Accelerometer'
p2226
sg6
S'Univariate, Sequential, Time-Series'
p2227
sg8
S''
p2228
sg10
S'Real'
p2229
sg12
S'Classification, Clustering'
p2230
sg14
S'2014'
p2231
sa(dp2232
g2
S'340'
p2233
sg4
S'Leaf'
p2234
sg6
S'Multivariate'
p2235
sg8
S'16'
p2236
sg10
S'Real'
p2237
sg12
S'Classification'
p2238
sg14
S'2014'
p2239
sa(dp2240
g2
S'501'
p2241
sg4
S'Dresses_Attribute_Sales'
p2242
sg6
S'Text'
p2243
sg8
S'13'
p2244
sg10
S''
p2245
sg12
S'Classification, Clustering'
p2246
sg14
S'2014'
p2247
sa(dp2248
g2
S'45781'
p2249
sg4
S'Tamilnadu Electricity Board Hourly Readings'
p2250
sg6
S'Multivariate'
p2251
sg8
S'5'
p2252
sg10
S'Real'
p2253
sg12
S'Classification, Regression, Clustering'
p2254
sg14
S'2013'
p2255
sa(dp2256
g2
S'1503'
p2257
sg4
S'Airfoil Self-Noise'
p2258
sg6
S'Multivariate'
p2259
sg8
S'6'
p2260
sg10
S'Real'
p2261
sg12
S'Regression'
p2262
sg14
S'2014'
p2263
sa(dp2264
g2
S'440'
p2265
sg4
S'Wholesale customers'
p2266
sg6
S'Multivariate'
p2267
sg8
S'8'
p2268
sg10
S'Integer'
p2269
sg12
S'Classification, Clustering'
p2270
sg14
S'2014'
p2271
sa(dp2272
g2
S'2000'
p2273
sg4
S'Twitter Data set for Arabic Sentiment Analysis'
p2274
sg6
S'Text'
p2275
sg8
S'2'
p2276
sg10
S''
p2277
sg12
S'Classification'
p2278
sg14
S'2014'
p2279
sa(dp2280
g2
S'9568'
p2281
sg4
S'Combined Cycle Power Plant'
p2282
sg6
S'Multivariate'
p2283
sg8
S'4'
p2284
sg10
S'Real'
p2285
sg12
S'Regression'
p2286
sg14
S'2014'
p2287
sa(dp2288
g2
S'168'
p2289
sg4
S'Urban Land Cover'
p2290
sg6
S'Multivariate'
p2291
sg8
S'148'
p2292
sg10
S''
p2293
sg12
S'Classification'
p2294
sg14
S'2014'
p2295
sa(dp2296
g2
S'100000'
p2297
sg4
S'Diabetes 130-US hospitals for years 1999-2008'
p2298
sg6
S'Multivariate'
p2299
sg8
S'55'
p2300
sg10
S'Integer'
p2301
sg12
S'Classification, Clustering'
p2302
sg14
S'2014'
p2303
sa(dp2304
g2
S'5665'
p2305
sg4
S'Bach Choral Harmony'
p2306
sg6
S'Sequential'
p2307
sg8
S'17'
p2308
sg10
S''
p2309
sg12
S'Classification'
p2310
sg14
S'2014'
p2311
sa(dp2312
g2
S'79'
p2313
sg4
S'StoneFlakes'
p2314
sg6
S'Multivariate'
p2315
sg8
S'8'
p2316
sg10
S'Real'
p2317
sg12
S'Classification, Clustering, Causal-Discovery'
p2318
sg14
S'2014'
p2319
sa(dp2320
g2
S'127'
p2321
sg4
S'Tennis Major Tournament Match Statistics'
p2322
sg6
S'Multivariate'
p2323
sg8
S'42'
p2324
sg10
S'Integer, Real'
p2325
sg12
S'Classification, Regression, Clustering'
p2326
sg14
S'2014'
p2327
sa(dp2328
g2
S'1040'
p2329
sg4
S'Parkinson Speech Dataset with  Multiple Types of Sound Recordings'
p2330
sg6
S'Multivariate'
p2331
sg8
S'26'
p2332
sg10
S'Integer, Real'
p2333
sg12
S'Classification, Regression'
p2334
sg14
S'2014'
p2335
sa(dp2336
g2
S'9900'
p2337
sg4
S'Gesture Phase Segmentation'
p2338
sg6
S'Multivariate, Sequential, Time-Series'
p2339
sg8
S'50'
p2340
sg10
S'Real'
p2341
sg12
S'Classification, Clustering'
p2342
sg14
S'2014'
p2343
sa(dp2344
g2
S'560'
p2345
sg4
S'Perfume Data'
p2346
sg6
S'Univariate, Domain-Theory'
p2347
sg8
S'2'
p2348
sg10
S'Integer'
p2349
sg12
S'Classification, Clustering'
p2350
sg14
S'2014'
p2351
sa(dp2352
g2
S'60021'
p2353
sg4
S'BlogFeedback'
p2354
sg6
S'Multivariate'
p2355
sg8
S'281'
p2356
sg10
S'Integer, Real'
p2357
sg12
S'Regression'
p2358
sg14
S'2014'
p2359
sa.